target datalayout = "e-m:e-p270:32:32-p271:32:32-p272:64:64-i64:64-i128:128-f80:128-n8:16:32:64-S128"
target triple = "x86_64-unknown-linux-gnu"

%struct.RISCVAclintMTimerState = type { %struct.SysBusDevice, i64, ptr, ptr, %struct.MemoryRegion, i32, i32, i32, i32, i32, i32, ptr }
%struct.SysBusDevice = type { %struct.DeviceState, i32, [32 x %struct.anon], i32, [32 x i32] }
%struct.DeviceState = type { %struct.Object, ptr, ptr, i8, i8, i64, ptr, i32, i8, ptr, %struct.NamedGPIOListHead, %struct.NamedClockListHead, %struct.BusStateHead, i32, i32, i32, %struct.ResettableState, ptr, %struct.MemReentrancyGuard }
%struct.Object = type { ptr, ptr, ptr, i32, ptr }
%struct.NamedGPIOListHead = type { ptr }
%struct.NamedClockListHead = type { ptr }
%struct.BusStateHead = type { ptr }
%struct.ResettableState = type { i32, i8, i8 }
%struct.MemReentrancyGuard = type { i8 }
%struct.anon = type { i64, ptr }
%struct.MemoryRegion = type { %struct.Object, i8, i8, i8, i8, i8, i8, i8, i8, i8, i8, ptr, ptr, ptr, ptr, ptr, ptr, i32, i128, i64, ptr, i64, i8, i8, i8, i8, i8, ptr, i64, i32, %union.anon, %union.anon.0, %union.anon.1, ptr, i32, ptr, ptr, i8 }
%union.anon = type { %struct.QTailQLink }
%struct.QTailQLink = type { ptr, ptr }
%union.anon.0 = type { %struct.QTailQLink }
%union.anon.1 = type { %struct.QTailQLink }

; Function Attrs: nounwind sspstrong uwtable
define internal i64 @cpu_riscv_read_rtc_raw(i32 noundef %timebase_freq) #0 {
entry:
  %timebase_freq.addr = alloca i32, align 4
  store i32 %timebase_freq, ptr %timebase_freq.addr, align 4
  %call = call i64 @qemu_clock_get_ns(i32 noundef 1)
  %0 = load i32, ptr %timebase_freq.addr, align 4
  %call1 = call i64 @muldiv64(i64 noundef %call, i32 noundef %0, i32 noundef 1000000000)
  ret i64 %call1
}

; Function Attrs: nounwind sspstrong uwtable
define internal i64 @muldiv64(i64 noundef %a, i32 noundef %b, i32 noundef %c) #0 {
entry:
  %a.addr = alloca i64, align 8
  %b.addr = alloca i32, align 4
  %c.addr = alloca i32, align 4
  store i64 %a, ptr %a.addr, align 8
  store i32 %b, ptr %b.addr, align 4
  store i32 %c, ptr %c.addr, align 4
  %0 = load i64, ptr %a.addr, align 8
  %conv = zext i64 %0 to i128
  %1 = load i32, ptr %b.addr, align 4
  %conv1 = zext i32 %1 to i128
  %mul = mul i128 %conv, %conv1
  %2 = load i32, ptr %c.addr, align 4
  %conv2 = zext i32 %2 to i128
  %div = sdiv i128 %mul, %conv2
  %conv3 = trunc i128 %div to i64
  ret i64 %conv3
}

; Function Attrs: nounwind sspstrong uwtable
define internal void @qemu_irq_lower(ptr noundef %irq) #0 {
entry:
  %irq.addr = alloca ptr, align 8
  store ptr %irq, ptr %irq.addr, align 8
  %0 = load ptr, ptr %irq.addr, align 8
  call void @qemu_set_irq(ptr noundef %0, i32 noundef 0)
  ret void
}

; Function Attrs: nounwind sspstrong uwtable
define internal void @qemu_irq_raise(ptr noundef %irq) #0 {
entry:
  %irq.addr = alloca ptr, align 8
  store ptr %irq, ptr %irq.addr, align 8
  %0 = load ptr, ptr %irq.addr, align 8
  call void @qemu_set_irq(ptr noundef %0, i32 noundef 1)
  ret void
}

; Function Attrs: nounwind sspstrong uwtable
define internal i64 @cpu_riscv_read_rtc(ptr noundef %opaque) #0 {
entry:
  %opaque.addr = alloca ptr, align 8
  %mtimer = alloca ptr, align 8
  store ptr %opaque, ptr %opaque.addr, align 8
  %0 = load ptr, ptr %opaque.addr, align 8
  store ptr %0, ptr %mtimer, align 8
  %1 = load ptr, ptr %mtimer, align 8
  %timebase_freq = getelementptr inbounds %struct.RISCVAclintMTimerState, ptr %1, i32 0, i32 10
  %2 = load i32, ptr %timebase_freq, align 4
  %call = call i64 @cpu_riscv_read_rtc_raw(i32 noundef %2)
  %3 = load ptr, ptr %mtimer, align 8
  %time_delta = getelementptr inbounds %struct.RISCVAclintMTimerState, ptr %3, i32 0, i32 1
  %4 = load i64, ptr %time_delta, align 16
  %add = add i64 %call, %4
  ret i64 %add
}

; Function Attrs: nounwind sspstrong uwtable
define internal void @riscv_aclint_mtimer_write_timecmp(ptr noundef %mtimer, ptr noundef %cpu, i32 noundef %hartid, i64 noundef %value) #0 {
entry:
  %mtimer.addr = alloca ptr, align 8
  %cpu.addr = alloca ptr, align 8
  %hartid.addr = alloca i32, align 4
  %value.addr = alloca i64, align 8
  %timebase_freq = alloca i32, align 4
  %next = alloca i64, align 8
  %diff = alloca i64, align 8
  %rtc = alloca i64, align 8
  %ns_diff = alloca i64, align 8
  %_a1 = alloca i64, align 8
  %_b2 = alloca i64, align 8
  %tmp = alloca i64, align 8
  store ptr %mtimer, ptr %mtimer.addr, align 8
  store ptr %cpu, ptr %cpu.addr, align 8
  store i32 %hartid, ptr %hartid.addr, align 4
  store i64 %value, ptr %value.addr, align 8
  %0 = load ptr, ptr %mtimer.addr, align 8
  %timebase_freq1 = getelementptr inbounds %struct.RISCVAclintMTimerState, ptr %0, i32 0, i32 10
  %1 = load i32, ptr %timebase_freq1, align 4
  store i32 %1, ptr %timebase_freq, align 4
  %2 = load ptr, ptr %mtimer.addr, align 8
  %call = call i64 @cpu_riscv_read_rtc(ptr noundef %2)
  store i64 %call, ptr %rtc, align 8
  %3 = load i32, ptr %hartid.addr, align 4
  %4 = load ptr, ptr %mtimer.addr, align 8
  %hartid_base = getelementptr inbounds %struct.RISCVAclintMTimerState, ptr %4, i32 0, i32 5
  %5 = load i32, ptr %hartid_base, align 16
  %sub = sub i32 %3, %5
  store i32 %sub, ptr %hartid.addr, align 4
  %6 = load i64, ptr %value.addr, align 8
  %7 = load ptr, ptr %mtimer.addr, align 8
  %timecmp = getelementptr inbounds %struct.RISCVAclintMTimerState, ptr %7, i32 0, i32 2
  %8 = load ptr, ptr %timecmp, align 8
  %9 = load i32, ptr %hartid.addr, align 4
  %idxprom = sext i32 %9 to i64
  %arrayidx = getelementptr i64, ptr %8, i64 %idxprom
  store i64 %6, ptr %arrayidx, align 8
  %10 = load ptr, ptr %mtimer.addr, align 8
  %timecmp2 = getelementptr inbounds %struct.RISCVAclintMTimerState, ptr %10, i32 0, i32 2
  %11 = load ptr, ptr %timecmp2, align 8
  %12 = load i32, ptr %hartid.addr, align 4
  %idxprom3 = sext i32 %12 to i64
  %arrayidx4 = getelementptr i64, ptr %11, i64 %idxprom3
  %13 = load i64, ptr %arrayidx4, align 8
  %14 = load i64, ptr %rtc, align 8
  %cmp = icmp ule i64 %13, %14
  br i1 %cmp, label %if.then, label %if.end

if.then:                                          ; preds = %entry
  %15 = load ptr, ptr %mtimer.addr, align 8
  %timer_irqs = getelementptr inbounds %struct.RISCVAclintMTimerState, ptr %15, i32 0, i32 11
  %16 = load ptr, ptr %timer_irqs, align 8
  %17 = load i32, ptr %hartid.addr, align 4
  %idxprom5 = sext i32 %17 to i64
  %arrayidx6 = getelementptr ptr, ptr %16, i64 %idxprom5
  %18 = load ptr, ptr %arrayidx6, align 8
  call void @qemu_irq_raise(ptr noundef %18)
  br label %return

if.end:                                           ; preds = %entry
  %19 = load ptr, ptr %mtimer.addr, align 8
  %timer_irqs7 = getelementptr inbounds %struct.RISCVAclintMTimerState, ptr %19, i32 0, i32 11
  %20 = load ptr, ptr %timer_irqs7, align 8
  %21 = load i32, ptr %hartid.addr, align 4
  %idxprom8 = sext i32 %21 to i64
  %arrayidx9 = getelementptr ptr, ptr %20, i64 %idxprom8
  %22 = load ptr, ptr %arrayidx9, align 8
  call void @qemu_irq_lower(ptr noundef %22)
  %23 = load ptr, ptr %mtimer.addr, align 8
  %timecmp10 = getelementptr inbounds %struct.RISCVAclintMTimerState, ptr %23, i32 0, i32 2
  %24 = load ptr, ptr %timecmp10, align 8
  %25 = load i32, ptr %hartid.addr, align 4
  %idxprom11 = sext i32 %25 to i64
  %arrayidx12 = getelementptr i64, ptr %24, i64 %idxprom11
  %26 = load i64, ptr %arrayidx12, align 8
  %27 = load i64, ptr %rtc, align 8
  %sub13 = sub i64 %26, %27
  store i64 %sub13, ptr %diff, align 8
  %28 = load i64, ptr %diff, align 8
  %29 = load i32, ptr %timebase_freq, align 4
  %call14 = call i64 @muldiv64(i64 noundef %28, i32 noundef 1000000000, i32 noundef %29)
  store i64 %call14, ptr %ns_diff, align 8
  %30 = load i32, ptr %timebase_freq, align 4
  %conv = zext i32 %30 to i64
  %cmp15 = icmp sgt i64 1000000000, %conv
  br i1 %cmp15, label %land.lhs.true, label %lor.lhs.false

land.lhs.true:                                    ; preds = %if.end
  %31 = load i64, ptr %ns_diff, align 8
  %32 = load i64, ptr %diff, align 8
  %cmp17 = icmp ult i64 %31, %32
  br i1 %cmp17, label %if.then21, label %lor.lhs.false

lor.lhs.false:                                    ; preds = %land.lhs.true, %if.end
  %33 = load i64, ptr %ns_diff, align 8
  %cmp19 = icmp ugt i64 %33, 9223372036854775807
  br i1 %cmp19, label %if.then21, label %if.else

if.then21:                                        ; preds = %lor.lhs.false, %land.lhs.true
  store i64 9223372036854775807, ptr %next, align 8
  br label %if.end25

if.else:                                          ; preds = %lor.lhs.false
  %call22 = call i64 @qemu_clock_get_ns(i32 noundef 1)
  %34 = load i64, ptr %ns_diff, align 8
  %add = add i64 %call22, %34
  store i64 %add, ptr %next, align 8
  %35 = load i64, ptr %next, align 8
  store i64 %35, ptr %_a1, align 8
  store i64 9223372036854775807, ptr %_b2, align 8
  %36 = load i64, ptr %_a1, align 8
  %37 = load i64, ptr %_b2, align 8
  %cmp23 = icmp ult i64 %36, %37
  br i1 %cmp23, label %cond.true, label %cond.false

cond.true:                                        ; preds = %if.else
  %38 = load i64, ptr %_a1, align 8
  br label %cond.end

cond.false:                                       ; preds = %if.else
  %39 = load i64, ptr %_b2, align 8
  br label %cond.end

cond.end:                                         ; preds = %cond.false, %cond.true
  %cond = phi i64 [ %38, %cond.true ], [ %39, %cond.false ]
  store i64 %cond, ptr %tmp, align 8
  %40 = load i64, ptr %tmp, align 8
  store i64 %40, ptr %next, align 8
  br label %if.end25

if.end25:                                         ; preds = %cond.end, %if.then21
  %41 = load ptr, ptr %mtimer.addr, align 8
  %timers = getelementptr inbounds %struct.RISCVAclintMTimerState, ptr %41, i32 0, i32 3
  %42 = load ptr, ptr %timers, align 16
  %43 = load i32, ptr %hartid.addr, align 4
  %idxprom26 = sext i32 %43 to i64
  %arrayidx27 = getelementptr ptr, ptr %42, i64 %idxprom26
  %44 = load ptr, ptr %arrayidx27, align 8
  %45 = load i64, ptr %next, align 8
  call void @timer_mod(ptr noundef %44, i64 noundef %45)
  br label %return

return:                                           ; preds = %if.end25, %if.then
  ret void
}