; Function Attrs: nounwind sspstrong uwtable
define internal fastcc void @riscv_aclint_mtimer_write_timecmp(ptr noundef readonly captures(none) %mtimer, i32 noundef %hartid, i64 noundef %value) unnamed_addr #0 {
entry:
  %timebase_freq1 = getelementptr inbounds nuw i8, ptr %mtimer, i64 1140
  %0 = load i32, ptr %timebase_freq1, align 4
  %call.i.i = tail call i64 @qemu_clock_get_ns(i32 noundef 1) #6
  %conv.i.i.i = zext i64 %call.i.i to i128
  %conv1.i.i.i = zext i32 %0 to i128
  %mul.i.i.i = mul nuw nsw i128 %conv.i.i.i, %conv1.i.i.i
  %div.i.i.i = udiv i128 %mul.i.i.i, 1000000000
  %conv3.i.i.i = trunc i128 %div.i.i.i to i64
  %time_delta.i = getelementptr inbounds nuw i8, ptr %mtimer, i64 816
  %1 = load i64, ptr %time_delta.i, align 16
  %add.i = add i64 %1, %conv3.i.i.i
  %hartid_base = getelementptr inbounds nuw i8, ptr %mtimer, i64 1120
  %2 = load i32, ptr %hartid_base, align 16
  %sub = sub i32 %hartid, %2
  %timecmp = getelementptr inbounds nuw i8, ptr %mtimer, i64 824
  %3 = load ptr, ptr %timecmp, align 8
  %idxprom = sext i32 %sub to i64
  %arrayidx = getelementptr i64, ptr %3, i64 %idxprom
  store i64 %value, ptr %arrayidx, align 8
  %4 = load ptr, ptr %timecmp, align 8
  %arrayidx4 = getelementptr i64, ptr %4, i64 %idxprom
  %5 = load i64, ptr %arrayidx4, align 8
  %cmp.not = icmp ugt i64 %5, %add.i
  %timer_irqs7 = getelementptr inbounds nuw i8, ptr %mtimer, i64 1144
  %6 = load ptr, ptr %timer_irqs7, align 8
  %arrayidx9 = getelementptr ptr, ptr %6, i64 %idxprom
  %7 = load ptr, ptr %arrayidx9, align 8
  br i1 %cmp.not, label %if.end, label %if.then

if.then:                                          ; preds = %entry
  tail call void @qemu_set_irq(ptr noundef %7, i32 noundef 1) #6
  br label %return

if.end:                                           ; preds = %entry
  tail call void @qemu_set_irq(ptr noundef %7, i32 noundef 0) #6
  %8 = load ptr, ptr %timecmp, align 8
  %arrayidx12 = getelementptr i64, ptr %8, i64 %idxprom
  %9 = load i64, ptr %arrayidx12, align 8
  %sub13 = sub i64 %9, %add.i
  %conv.i = zext i64 %sub13 to i128
  %mul.i = mul nuw nsw i128 %conv.i, 1000000000
  %div.i = udiv i128 %mul.i, %conv1.i.i.i
  %conv3.i = trunc i128 %div.i to i64
  %cmp15 = icmp ult i32 %0, 1000000000
  br i1 %cmp15, label %land.lhs.true, label %lor.lhs.false

land.lhs.true:                                    ; preds = %if.end
  %cmp17 = icmp ugt i64 %sub13, %conv3.i
  %cmp19 = icmp slt i64 %conv3.i, 0
  %or.cond = or i1 %cmp17, %cmp19
  br i1 %or.cond, label %if.end25, label %if.else

lor.lhs.false:                                    ; preds = %if.end
  %cmp19.old = icmp slt i64 %conv3.i, 0
  br i1 %cmp19.old, label %if.end25, label %if.else

if.else:                                          ; preds = %land.lhs.true, %lor.lhs.false
  %call22 = tail call i64 @qemu_clock_get_ns(i32 noundef 1) #6
  %add = add i64 %call22, %conv3.i
  %cond = tail call i64 @llvm.umin.i64(i64 %add, i64 9223372036854775807)
  br label %if.end25

if.end25:                                         ; preds = %land.lhs.true, %lor.lhs.false, %if.else
  %next.0 = phi i64 [ %cond, %if.else ], [ 9223372036854775807, %lor.lhs.false ], [ 9223372036854775807, %land.lhs.true ]
  %timers = getelementptr inbounds nuw i8, ptr %mtimer, i64 832
  %10 = load ptr, ptr %timers, align 16
  %arrayidx27 = getelementptr ptr, ptr %10, i64 %idxprom
  %11 = load ptr, ptr %arrayidx27, align 8
  tail call void @timer_mod(ptr noundef %11, i64 noundef %next.0) #6
  br label %return

return:                                           ; preds = %if.end25, %if.then
  ret void
}